target datalayout = "e-m:e-p270:32:32-p271:32:32-p272:64:64-i64:64-i128:128-f80:128-n8:16:32:64-S128"
target triple = "x86_64-pc-linux-gnu"

%struct.pm_parse_result_t = type { %struct.pm_parser, %struct.pm_options, %struct.pm_string_t, %struct.pm_scope_node, i8 }
%struct.pm_parser = type { i32, i32, i32, i32, i32, i32, i32, %struct.anon.23, ptr, ptr, %struct.pm_token_t, %struct.pm_token_t, ptr, ptr, %struct.pm_list_t, %struct.pm_list_t, %struct.pm_location_t, %struct.pm_list_t, %struct.pm_list_t, ptr, ptr, ptr, ptr, ptr, ptr, ptr, %struct.pm_string_t, %struct.pm_constant_pool_t, %struct.pm_newline_list_t, i16, %struct.pm_string_t, i32, ptr, ptr, i32, i8, i8, i8, i8, i8, i8, i8, i8, i8, i8, i8, i8, i8 }
%struct.anon.23 = type { ptr, [4 x %struct.pm_lex_mode], i64 }
%struct.pm_lex_mode = type { i32, %union.anon.24, ptr }
%union.anon.24 = type { %struct.anon.28 }
%struct.anon.28 = type { %struct.pm_heredoc_lex_mode_t, ptr, ptr, i8 }
%struct.pm_heredoc_lex_mode_t = type { ptr, i64, i32, i32 }
%struct.pm_token_t = type { i32, ptr, ptr }
%struct.pm_location_t = type { ptr, ptr }
%struct.pm_list_t = type { i64, ptr, ptr }
%struct.pm_constant_pool_t = type { ptr, ptr, i32, i32 }
%struct.pm_newline_list_t = type { ptr, i64, i64, ptr }
%struct.pm_options = type { ptr, ptr, %struct.pm_string_t, i32, %struct.pm_string_t, i64, ptr, i32, i8, i8, i8, i8, i8, i8 }
%struct.pm_string_t = type { ptr, i64, i32 }
%struct.pm_scope_node = type { %struct.pm_node, ptr, ptr, ptr, ptr, %struct.pm_constant_id_list_t, ptr, ptr, ptr, ptr, i32, ptr, ptr, i32, ptr }
%struct.pm_node = type { i16, i16, i32, %struct.pm_location_t }
%struct.pm_constant_id_list_t = type { i64, i64, ptr }
%struct.pm_buffer_t = type { i64, i64, ptr }

; Function Attrs: nounwind sspstrong uwtable
define internal i64 @prism_dump_tree(ptr noundef %0) #0 {
  %2 = alloca ptr, align 8
  %3 = alloca %struct.pm_buffer_t, align 8
  %4 = alloca i64, align 8
  store ptr %0, ptr %2, align 8, !tbaa !17
  call void @llvm.lifetime.start.p0(i64 24, ptr %3) #24
  call void @llvm.memset.p0.i64(ptr align 8 %3, i8 0, i64 24, i1 false)
  %5 = load ptr, ptr %2, align 8, !tbaa !17
  %6 = getelementptr inbounds nuw %struct.pm_parse_result_t, ptr %5, i32 0, i32 0
  %7 = load ptr, ptr %2, align 8, !tbaa !17
  %8 = getelementptr inbounds nuw %struct.pm_parse_result_t, ptr %7, i32 0, i32 3
  %9 = getelementptr inbounds nuw %struct.pm_scope_node, ptr %8, i32 0, i32 2
  %10 = load ptr, ptr %9, align 8, !tbaa !182
  call void @pm_prettyprint(ptr noundef %3, ptr noundef %6, ptr noundef %10)
  call void @llvm.lifetime.start.p0(i64 8, ptr %4) #24
  br i1 false, label %11, label %15

11:                                               ; preds = %1
  %12 = getelementptr inbounds nuw %struct.pm_buffer_t, ptr %3, i32 0, i32 0
  %13 = load i64, ptr %12, align 8, !tbaa !183
  %14 = call i1 @llvm.is.constant.i64(i64 %13)
  br label %15

15:                                               ; preds = %11, %1
  %16 = phi i1 [ false, %1 ], [ %14, %11 ]
  %17 = select i1 %16, ptr @rb_str_new_static, ptr @rb_str_new
  %18 = getelementptr inbounds nuw %struct.pm_buffer_t, ptr %3, i32 0, i32 2
  %19 = load ptr, ptr %18, align 8, !tbaa !185
  %20 = getelementptr inbounds nuw %struct.pm_buffer_t, ptr %3, i32 0, i32 0
  %21 = load i64, ptr %20, align 8, !tbaa !183
  %22 = call i64 %17(ptr noundef %19, i64 noundef %21)
  store i64 %22, ptr %4, align 8, !tbaa !42
  call void @pm_buffer_free(ptr noundef %3)
  %23 = load i64, ptr %4, align 8, !tbaa !42
  call void @llvm.lifetime.end.p0(i64 8, ptr %4) #24
  call void @llvm.lifetime.end.p0(i64 24, ptr %3) #24
  ret i64 %23
}