; Function Attrs: nounwind sspstrong uwtable
define internal fastcc i64 @prism_dump_tree(ptr noundef nonnull %0) unnamed_addr #0 {
  %2 = alloca %struct.pm_buffer_t, align 8
  call void @llvm.lifetime.start.p0(i64 24, ptr nonnull %2) #25
  call void @llvm.memset.p0.i64(ptr noundef nonnull align 8 dereferenceable(24) %2, i8 0, i64 24, i1 false)
  %3 = getelementptr inbounds nuw i8, ptr %0, i64 872
  %4 = load ptr, ptr %3, align 8, !tbaa !207
  call void @pm_prettyprint(ptr noundef nonnull %2, ptr noundef nonnull %0, ptr noundef %4) #25
  %5 = getelementptr inbounds nuw i8, ptr %2, i64 16
  %6 = load ptr, ptr %5, align 8, !tbaa !208
  %7 = load i64, ptr %2, align 8, !tbaa !210
  %8 = call i64 @rb_str_new(ptr noundef %6, i64 noundef %7) #25
  call void @pm_buffer_free(ptr noundef nonnull %2) #25
  call void @llvm.lifetime.end.p0(i64 24, ptr nonnull %2) #25
  ret i64 %8
}